; ModuleID = '29/1961.c'
source_filename = "29/1961.c"
target datalayout = "e-m:e-p270:32:32-p271:32:32-p272:64:64-i64:64-f80:128-n8:16:32:64-S128"
target triple = "x86_64-pc-linux-gnu"

@a = common dso_local global double 0.000000e+00, align 8
@.str = private unnamed_addr constant [3 x i8] c"%d\00", align 1
@m = common dso_local global i32 0, align 4
@i = common dso_local global i32 0, align 4
@n = common dso_local global i32 0, align 4
@.str.1 = private unnamed_addr constant [6 x i8] c"%.3f\0A\00", align 1

; Function Attrs: noinline nounwind uwtable
define dso_local double @f(i32 %0) #0 {
  %2 = alloca i32, align 4
  %3 = alloca i32, align 4
  %4 = alloca i32, align 4
  %5 = alloca i32, align 4
  %6 = alloca i32, align 4
  store i32 %0, i32* %2, align 4
  store i32 1, i32* %3, align 4
  store i32 2, i32* %4, align 4
  store double 0.000000e+00, double* @a, align 8
  store i32 1, i32* %6, align 4
  br label %7

7:                                                ; preds = %24, %1
  %8 = load i32, i32* %6, align 4
  %9 = load i32, i32* %2, align 4
  %10 = icmp sle i32 %8, %9
  br i1 %10, label %11, label %27

11:                                               ; preds = %7
  %12 = load i32, i32* %4, align 4
  %13 = sitofp i32 %12 to double
  %14 = load i32, i32* %3, align 4
  %15 = sitofp i32 %14 to double
  %16 = fdiv double %13, %15
  %17 = load double, double* @a, align 8
  %18 = fadd double %17, %16
  store double %18, double* @a, align 8
  %19 = load i32, i32* %3, align 4
  %20 = load i32, i32* %4, align 4
  %21 = add nsw i32 %19, %20
  store i32 %21, i32* %5, align 4
  %22 = load i32, i32* %4, align 4
  store i32 %22, i32* %3, align 4
  %23 = load i32, i32* %5, align 4
  store i32 %23, i32* %4, align 4
  br label %24

24:                                               ; preds = %11
  %25 = load i32, i32* %6, align 4
  %26 = add nsw i32 %25, 1
  store i32 %26, i32* %6, align 4
  br label %7

27:                                               ; preds = %7
  %28 = load double, double* @a, align 8
  ret double %28
}

; Function Attrs: noinline nounwind uwtable
define dso_local void @main() #0 {
  %1 = call i32 (i8*, ...) @__isoc99_scanf(i8* getelementptr inbounds ([3 x i8], [3 x i8]* @.str, i64 0, i64 0), i32* @m)
  store i32 1, i32* @i, align 4
  br label %2

2:                                                ; preds = %11, %0
  %3 = load i32, i32* @i, align 4
  %4 = load i32, i32* @m, align 4
  %5 = icmp sle i32 %3, %4
  br i1 %5, label %6, label %14

6:                                                ; preds = %2
  %7 = call i32 (i8*, ...) @__isoc99_scanf(i8* getelementptr inbounds ([3 x i8], [3 x i8]* @.str, i64 0, i64 0), i32* @n)
  %8 = load i32, i32* @n, align 4
  %9 = call double @f(i32 %8)
  %10 = call i32 (i8*, ...) @printf(i8* getelementptr inbounds ([6 x i8], [6 x i8]* @.str.1, i64 0, i64 0), double %9)
  br label %11

11:                                               ; preds = %6
  %12 = load i32, i32* @i, align 4
  %13 = add nsw i32 %12, 1
  store i32 %13, i32* @i, align 4
  br label %2

14:                                               ; preds = %2
  ret void
}

declare dso_local i32 @__isoc99_scanf(i8*, ...) #1

declare dso_local i32 @printf(i8*, ...) #1


!llvm.module.flags = !{!0}
!llvm.ident = !{!1}

!0 = !{i32 1, !"wchar_size", i32 4}
!1 = !{!"clang version 10.0.0-4ubuntu1 "}
